; Function Attrs: mustprogress nofree norecurse nosync nounwind willreturn memory(argmem: read) uwtable
define { ptr, i32 } @_ZN6google8protobuf8internal15ReadTagFallbackEPKcj(ptr noundef %p, i32 noundef %res) local_unnamed_addr #3 {
entry:
  br label %for.body

for.cond:                                         ; preds = %for.body
  %indvars.iv.next = add nuw nsw i64 %indvars.iv, 1
  %exitcond.not = icmp eq i64 %indvars.iv.next, 5
  br i1 %exitcond.not, label %return, label %for.body, !llvm.loop !4

for.body:                                         ; preds = %entry, %for.cond
  %indvars.iv = phi i64 [ 2, %entry ], [ %indvars.iv.next, %for.cond ]
  %res.addr.09 = phi i32 [ %res, %entry ], [ %add, %for.cond ]
  %arrayidx = getelementptr inbounds nuw i8, ptr %p, i64 %indvars.iv
  %0 = load i8, ptr %arrayidx, align 1
  %conv = zext i8 %0 to i32
  %sub = add nsw i32 %conv, -1
  %1 = trunc i64 %indvars.iv to i32
  %2 = mul i32 %1, 7
  %shl = shl i32 %sub, %2
  %add = add i32 %shl, %res.addr.09
  %cmp1 = icmp sgt i8 %0, -1
  br i1 %cmp1, label %if.then, label %for.cond

if.then:                                          ; preds = %for.body
  %arrayidx.le = getelementptr inbounds nuw i8, ptr %p, i64 %indvars.iv
  %add.ptr3 = getelementptr inbounds nuw i8, ptr %arrayidx.le, i64 1
  br label %return

return:                                           ; preds = %for.cond, %if.then
  %retval.sroa.0.0 = phi ptr [ %add.ptr3, %if.then ], [ null, %for.cond ]
  %retval.sroa.3.0 = phi i32 [ %add, %if.then ], [ 0, %for.cond ]
  %.fca.0.insert = insertvalue { ptr, i32 } poison, ptr %retval.sroa.0.0, 0
  %.fca.1.insert = insertvalue { ptr, i32 } %.fca.0.insert, i32 %retval.sroa.3.0, 1
  ret { ptr, i32 } %.fca.1.insert
}